; Function Attrs: nounwind sspstrong uwtable
define internal range(i32 1, 9) i32 @ivshmem_can_receive(ptr noundef readonly captures(none) %opaque) #0 {
entry:
  %msg_buffered_bytes = getelementptr inbounds nuw i8, ptr %opaque, i64 3296
  %0 = load i32, ptr %msg_buffered_bytes, align 16
  %cmp = icmp ult i32 %0, 8
  br i1 %cmp, label %if.end, label %if.else

if.else:                                          ; preds = %entry
  tail call void @__assert_fail(ptr noundef nonnull @.str.29, ptr noundef nonnull @.str.7, i32 noundef 582, ptr noundef nonnull @__PRETTY_FUNCTION__.ivshmem_can_receive) #12
  unreachable

if.end:                                           ; preds = %entry
  %narrow = sub nuw nsw i32 8, %0
  ret i32 %narrow
}